/*
 * Intel ACPI Component Architecture
 * AML/ASL+ Disassembler version 20150717-64
 * Copyright (c) 2000 - 2015 Intel Corporation
 * 
 * Disassembly of hpet.dat, Mon Aug 24 19:53:29 2015
 *
 * ACPI Data Table [HPET]
 *
 * Format: [HexOffset DecimalOffset ByteLength]  FieldName : FieldValue
 */

[000h 0000   4]                    Signature : "HPET"    [High Precision Event Timer table]
[004h 0004   4]                 Table Length : 00000038
[008h 0008   1]                     Revision : 01
[009h 0009   1]                     Checksum : 1C
[00Ah 0010   6]                       Oem ID : "_ASUS_"
[010h 0016   8]                 Oem Table ID : "Notebook"
[018h 0024   4]                 Oem Revision : 00000003
[01Ch 0028   4]              Asl Compiler ID : "AMI "
[020h 0032   4]        Asl Compiler Revision : 0100000D

[024h 0036   4]            Hardware Block ID : 8086A201

[028h 0040  12]         Timer Block Register : [Generic Address Structure]
[028h 0040   1]                     Space ID : 00 [SystemMemory]
[029h 0041   1]                    Bit Width : 40
[02Ah 0042   1]                   Bit Offset : 00
[02Bh 0043   1]         Encoded Access Width : 00 [Undefined/Legacy]
[02Ch 0044   8]                      Address : 00000000FED00000

[034h 0052   1]              Sequence Number : 00
[035h 0053   2]          Minimum Clock Ticks : 0080
[037h 0055   1]        Flags (decoded below) : 00
                             4K Page Protect : 0
                            64K Page Protect : 0

Raw Table Data: Length 56 (0x38)

  0000: 48 50 45 54 38 00 00 00 01 1C 5F 41 53 55 53 5F  // HPET8....._ASUS_
  0010: 4E 6F 74 65 62 6F 6F 6B 03 00 00 00 41 4D 49 20  // Notebook....AMI 
  0020: 0D 00 00 01 01 A2 86 80 00 40 00 00 00 00 D0 FE  // .........@......
  0030: 00 00 00 00 00 80 00 00                          // ........
